target datalayout = "e-m:e-p270:32:32-p271:32:32-p272:64:64-i64:64-i128:128-f80:128-n8:16:32:64-S128"
target triple = "x86_64-pc-linux-gnu"

%struct.H5D_vlen_bufsize_common_t = type { ptr, ptr, i64, i64 }
%struct.H5D_vlen_bufsize_generic_t = type { ptr, i64, ptr, i64, i64, %struct.H5D_vlen_bufsize_common_t }

@H5_vlen_fl_buf_blk_free_list = global { i8, [3 x i8], i32, i32, [4 x i8], i64, ptr, ptr } { i8 0, [3 x i8] zeroinitializer, i32 0, i32 0, [4 x i8] zeroinitializer, i64 0, ptr @.str.1, ptr null }, align 8
@H5D_init_g = external global i8, align 1
@H5_libterm_g = external global i8, align 1
@.str.2 = private unnamed_addr constant [100 x i8] c"generated/home/dtcxzyw/WorkSpace/Projects/compilers/llvm-opt-benchmark/bench/hdf5/hdf5/src/H5Dint.c\00", align 1
@H5E_DATASET_g = external global i64, align 8
@H5E_BADTYPE_g = external global i64, align 8
@.str.18 = private unnamed_addr constant [15 x i8] c"not a datatype\00", align 1
@H5E_NOSPACE_g = external global i64, align 8
@H5E_CANTCREATE_g = external global i64, align 8
@.str.266 = private unnamed_addr constant [19 x i8] c"can't select point\00", align 1
@H5E_READERROR_g = external global i64, align 8
@__func__.H5D__vlen_get_buf_size_gen_cb = private unnamed_addr constant [30 x i8] c"H5D__vlen_get_buf_size_gen_cb\00", align 1
@.str.268 = private unnamed_addr constant [18 x i8] c"can't resize tbuf\00", align 1
@.str.269 = private unnamed_addr constant [17 x i8] c"can't read point\00", align 1

; Function Attrs: nounwind uwtable
define internal i32 @H5D__vlen_get_buf_size_gen_cb(ptr noundef %0, i64 noundef %1, i32 noundef %2, ptr noundef %3, ptr noundef %4) #0 {
  %6 = alloca ptr, align 8
  %7 = alloca i64, align 8
  %8 = alloca i32, align 4
  %9 = alloca ptr, align 8
  %10 = alloca ptr, align 8
  %11 = alloca ptr, align 8
  %12 = alloca ptr, align 8
  %13 = alloca ptr, align 8
  %14 = alloca i32, align 4
  %15 = alloca i8, align 1
  store ptr %0, ptr %6, align 8, !tbaa !60
  store i64 %1, ptr %7, align 8, !tbaa !11
  store i32 %2, ptr %8, align 4, !tbaa !3
  store ptr %3, ptr %9, align 8, !tbaa !140
  store ptr %4, ptr %10, align 8, !tbaa !60
  call void @llvm.lifetime.start.p0(i64 8, ptr %11) #12
  %16 = load ptr, ptr %10, align 8, !tbaa !60
  store ptr %16, ptr %11, align 8, !tbaa !60
  call void @llvm.lifetime.start.p0(i64 8, ptr %12) #12
  call void @llvm.lifetime.start.p0(i64 8, ptr %13) #12
  call void @llvm.lifetime.start.p0(i64 4, ptr %14) #12
  store i32 0, ptr %14, align 4, !tbaa !3
  call void @llvm.lifetime.start.p0(i64 1, ptr %15) #12
  store i8 0, ptr %15, align 1, !tbaa !7
  %17 = load i8, ptr @H5D_init_g, align 1, !tbaa !7, !range !9, !noundef !10
  %18 = trunc i8 %17 to i1
  br i1 %18, label %23, label %19

19:                                               ; preds = %5
  %20 = load i8, ptr @H5_libterm_g, align 1, !tbaa !7, !range !9, !noundef !10
  %21 = trunc i8 %20 to i1
  %22 = xor i1 %21, true
  br label %23

23:                                               ; preds = %19, %5
  %24 = phi i1 [ true, %5 ], [ %22, %19 ]
  %25 = xor i1 %24, true
  %26 = xor i1 %25, true
  %27 = zext i1 %26 to i32
  %28 = sext i32 %27 to i64
  %29 = call i64 @llvm.expect.i64(i64 %28, i64 1)
  %30 = icmp ne i64 %29, 0
  br i1 %30, label %31, label %153

31:                                               ; preds = %23
  %32 = load i64, ptr %7, align 8, !tbaa !11
  %33 = call ptr @H5I_object(i64 noundef %32)
  store ptr %33, ptr %12, align 8, !tbaa !74
  %34 = icmp eq ptr null, %33
  br i1 %34, label %35, label %54

35:                                               ; preds = %31
  br label %36

36:                                               ; preds = %35
  br label %37

37:                                               ; preds = %36
  br label %38

38:                                               ; preds = %37
  %39 = load i64, ptr @H5E_DATASET_g, align 8, !tbaa !11
  %40 = load i64, ptr @H5E_BADTYPE_g, align 8, !tbaa !11
  %41 = call i32 (ptr, ptr, i32, i64, i64, ptr, ...) @H5E_printf_stack(ptr noundef @.str.2, ptr noundef @__func__.H5D__vlen_get_buf_size_gen_cb, i32 noundef 2851, i64 noundef %39, i64 noundef %40, ptr noundef @.str.18)
  br label %42

42:                                               ; preds = %38
  br label %43

43:                                               ; preds = %42
  store i8 1, ptr %15, align 1, !tbaa !7
  %44 = load i8, ptr %15, align 1, !tbaa !7, !range !9, !noundef !10
  %45 = trunc i8 %44 to i1
  %46 = zext i1 %45 to i8
  store i8 %46, ptr %15, align 1, !tbaa !7
  br label %47

47:                                               ; preds = %43
  br label %48

48:                                               ; preds = %47
  br label %49

49:                                               ; preds = %48
  store i32 -1, ptr %14, align 4, !tbaa !3
  br label %152

50:                                               ; No predecessors!
  br label %51

51:                                               ; preds = %50
  br label %52

52:                                               ; preds = %51
  br label %53

53:                                               ; preds = %52
  br label %54

54:                                               ; preds = %53, %31
  %55 = load ptr, ptr %11, align 8, !tbaa !60
  %56 = getelementptr inbounds nuw %struct.H5D_vlen_bufsize_generic_t, ptr %55, i32 0, i32 5
  %57 = getelementptr inbounds nuw %struct.H5D_vlen_bufsize_common_t, ptr %56, i32 0, i32 0
  %58 = load ptr, ptr %57, align 8, !tbaa !178
  %59 = load ptr, ptr %12, align 8, !tbaa !74
  %60 = call i64 @H5T_get_size(ptr noundef %59)
  %61 = call ptr @H5FL_blk_realloc(ptr noundef @H5_vlen_fl_buf_blk_free_list, ptr noundef %58, i64 noundef %60)
  %62 = load ptr, ptr %11, align 8, !tbaa !60
  %63 = getelementptr inbounds nuw %struct.H5D_vlen_bufsize_generic_t, ptr %62, i32 0, i32 5
  %64 = getelementptr inbounds nuw %struct.H5D_vlen_bufsize_common_t, ptr %63, i32 0, i32 0
  store ptr %61, ptr %64, align 8, !tbaa !178
  %65 = icmp eq ptr null, %61
  br i1 %65, label %66, label %85

66:                                               ; preds = %54
  br label %67

67:                                               ; preds = %66
  br label %68

68:                                               ; preds = %67
  br label %69

69:                                               ; preds = %68
  %70 = load i64, ptr @H5E_DATASET_g, align 8, !tbaa !11
  %71 = load i64, ptr @H5E_NOSPACE_g, align 8, !tbaa !11
  %72 = call i32 (ptr, ptr, i32, i64, i64, ptr, ...) @H5E_printf_stack(ptr noundef @.str.2, ptr noundef @__func__.H5D__vlen_get_buf_size_gen_cb, i32 noundef 2856, i64 noundef %70, i64 noundef %71, ptr noundef @.str.268)
  br label %73

73:                                               ; preds = %69
  br label %74

74:                                               ; preds = %73
  store i8 1, ptr %15, align 1, !tbaa !7
  %75 = load i8, ptr %15, align 1, !tbaa !7, !range !9, !noundef !10
  %76 = trunc i8 %75 to i1
  %77 = zext i1 %76 to i8
  store i8 %77, ptr %15, align 1, !tbaa !7
  br label %78

78:                                               ; preds = %74
  br label %79

79:                                               ; preds = %78
  br label %80

80:                                               ; preds = %79
  store i32 -1, ptr %14, align 4, !tbaa !3
  br label %152

81:                                               ; No predecessors!
  br label %82

82:                                               ; preds = %81
  br label %83

83:                                               ; preds = %82
  br label %84

84:                                               ; preds = %83
  br label %85

85:                                               ; preds = %84, %54
  %86 = load ptr, ptr %11, align 8, !tbaa !60
  %87 = getelementptr inbounds nuw %struct.H5D_vlen_bufsize_generic_t, ptr %86, i32 0, i32 2
  %88 = load ptr, ptr %87, align 8, !tbaa !176
  %89 = load ptr, ptr %9, align 8, !tbaa !140
  %90 = call i32 @H5S_select_elements(ptr noundef %88, i32 noundef 0, i64 noundef 1, ptr noundef %89)
  %91 = icmp slt i32 %90, 0
  br i1 %91, label %92, label %111

92:                                               ; preds = %85
  br label %93

93:                                               ; preds = %92
  br label %94

94:                                               ; preds = %93
  br label %95

95:                                               ; preds = %94
  %96 = load i64, ptr @H5E_DATASET_g, align 8, !tbaa !11
  %97 = load i64, ptr @H5E_CANTCREATE_g, align 8, !tbaa !11
  %98 = call i32 (ptr, ptr, i32, i64, i64, ptr, ...) @H5E_printf_stack(ptr noundef @.str.2, ptr noundef @__func__.H5D__vlen_get_buf_size_gen_cb, i32 noundef 2860, i64 noundef %96, i64 noundef %97, ptr noundef @.str.266)
  br label %99

99:                                               ; preds = %95
  br label %100

100:                                              ; preds = %99
  store i8 1, ptr %15, align 1, !tbaa !7
  %101 = load i8, ptr %15, align 1, !tbaa !7, !range !9, !noundef !10
  %102 = trunc i8 %101 to i1
  %103 = zext i1 %102 to i8
  store i8 %103, ptr %15, align 1, !tbaa !7
  br label %104

104:                                              ; preds = %100
  br label %105

105:                                              ; preds = %104
  br label %106

106:                                              ; preds = %105
  store i32 -1, ptr %14, align 4, !tbaa !3
  br label %152

107:                                              ; No predecessors!
  br label %108

108:                                              ; preds = %107
  br label %109

109:                                              ; preds = %108
  br label %110

110:                                              ; preds = %109
  br label %111

111:                                              ; preds = %110, %85
  %112 = load ptr, ptr %11, align 8, !tbaa !60
  %113 = getelementptr inbounds nuw %struct.H5D_vlen_bufsize_generic_t, ptr %112, i32 0, i32 0
  %114 = load ptr, ptr %113, align 8, !tbaa !171
  %115 = call ptr @H5VL_obj_get_data(ptr noundef %114)
  store ptr %115, ptr %13, align 8, !tbaa !60
  %116 = load ptr, ptr %11, align 8, !tbaa !60
  %117 = getelementptr inbounds nuw %struct.H5D_vlen_bufsize_generic_t, ptr %116, i32 0, i32 0
  %118 = load ptr, ptr %117, align 8, !tbaa !171
  %119 = call ptr @H5VL_obj_get_connector(ptr noundef %118)
  %120 = load ptr, ptr %11, align 8, !tbaa !60
  %121 = getelementptr inbounds nuw %struct.H5D_vlen_bufsize_generic_t, ptr %120, i32 0, i32 3
  %122 = load ptr, ptr %11, align 8, !tbaa !60
  %123 = getelementptr inbounds nuw %struct.H5D_vlen_bufsize_generic_t, ptr %122, i32 0, i32 1
  %124 = load ptr, ptr %11, align 8, !tbaa !60
  %125 = getelementptr inbounds nuw %struct.H5D_vlen_bufsize_generic_t, ptr %124, i32 0, i32 4
  %126 = load i64, ptr %125, align 8, !tbaa !181
  %127 = load ptr, ptr %11, align 8, !tbaa !60
  %128 = getelementptr inbounds nuw %struct.H5D_vlen_bufsize_generic_t, ptr %127, i32 0, i32 5
  %129 = getelementptr inbounds nuw %struct.H5D_vlen_bufsize_common_t, ptr %128, i32 0, i32 0
  %130 = call i32 @H5VL_dataset_read(i64 noundef 1, ptr noundef %13, ptr noundef %119, ptr noundef %7, ptr noundef %121, ptr noundef %123, i64 noundef %126, ptr noundef %129, ptr noundef null)
  %131 = icmp slt i32 %130, 0
  br i1 %131, label %132, label %151

132:                                              ; preds = %111
  br label %133

133:                                              ; preds = %132
  br label %134

134:                                              ; preds = %133
  br label %135

135:                                              ; preds = %134
  %136 = load i64, ptr @H5E_DATASET_g, align 8, !tbaa !11
  %137 = load i64, ptr @H5E_READERROR_g, align 8, !tbaa !11
  %138 = call i32 (ptr, ptr, i32, i64, i64, ptr, ...) @H5E_printf_stack(ptr noundef @.str.2, ptr noundef @__func__.H5D__vlen_get_buf_size_gen_cb, i32 noundef 2867, i64 noundef %136, i64 noundef %137, ptr noundef @.str.269)
  br label %139

139:                                              ; preds = %135
  br label %140

140:                                              ; preds = %139
  store i8 1, ptr %15, align 1, !tbaa !7
  %141 = load i8, ptr %15, align 1, !tbaa !7, !range !9, !noundef !10
  %142 = trunc i8 %141 to i1
  %143 = zext i1 %142 to i8
  store i8 %143, ptr %15, align 1, !tbaa !7
  br label %144

144:                                              ; preds = %140
  br label %145

145:                                              ; preds = %144
  br label %146

146:                                              ; preds = %145
  store i32 -1, ptr %14, align 4, !tbaa !3
  br label %152

147:                                              ; No predecessors!
  br label %148

148:                                              ; preds = %147
  br label %149

149:                                              ; preds = %148
  br label %150

150:                                              ; preds = %149
  br label %151

151:                                              ; preds = %150, %111
  br label %152

152:                                              ; preds = %151, %146, %106, %80, %49
  br label %153

153:                                              ; preds = %152, %23
  %154 = load i32, ptr %14, align 4, !tbaa !3
  call void @llvm.lifetime.end.p0(i64 1, ptr %15) #12
  call void @llvm.lifetime.end.p0(i64 4, ptr %14) #12
  call void @llvm.lifetime.end.p0(i64 8, ptr %13) #12
  call void @llvm.lifetime.end.p0(i64 8, ptr %12) #12
  call void @llvm.lifetime.end.p0(i64 8, ptr %11) #12
  ret i32 %154
}