; Function Attrs: nounwind uwtable
define internal range(i32 -1, 1) i32 @H5D__vlen_get_buf_size_gen_cb(ptr readnone captures(none) %0, i64 noundef %1, i32 %2, ptr noundef %3, ptr noundef %4) #0 {
  %6 = alloca i64, align 8
  %7 = alloca ptr, align 8
  store i64 %1, ptr %6, align 8, !tbaa !10
  call void @llvm.lifetime.start.p0(i64 8, ptr nonnull %7) #12
  %8 = load i8, ptr @H5D_init_g, align 1, !tbaa !3, !range !7, !noundef !8
  %9 = trunc nuw i8 %8 to i1
  %10 = load i8, ptr @H5_libterm_g, align 1, !range !7
  %11 = trunc nuw i8 %10 to i1
  %12 = xor i1 %11, true
  %13 = select i1 %9, i1 true, i1 %12
  br i1 %13, label %14, label %55, !prof !9

14:                                               ; preds = %5
  %15 = tail call ptr @H5I_object(i64 noundef %1) #12
  %16 = icmp eq ptr %15, null
  br i1 %16, label %17, label %21

17:                                               ; preds = %14
  %18 = load i64, ptr @H5E_DATASET_g, align 8, !tbaa !10
  %19 = load i64, ptr @H5E_BADTYPE_g, align 8, !tbaa !10
  %20 = tail call i32 (ptr, ptr, i32, i64, i64, ptr, ...) @H5E_printf_stack(ptr noundef nonnull @.str.2, ptr noundef nonnull @__func__.H5D__vlen_get_buf_size_gen_cb, i32 noundef 2851, i64 noundef %18, i64 noundef %19, ptr noundef nonnull @.str.18) #12
  br label %55

21:                                               ; preds = %14
  %22 = getelementptr inbounds nuw i8, ptr %4, i64 40
  %23 = load ptr, ptr %22, align 8, !tbaa !158
  %24 = tail call i64 @H5T_get_size(ptr noundef nonnull %15) #12
  %25 = tail call ptr @H5FL_blk_realloc(ptr noundef nonnull @H5_vlen_fl_buf_blk_free_list, ptr noundef %23, i64 noundef %24) #12
  store ptr %25, ptr %22, align 8, !tbaa !158
  %26 = icmp eq ptr %25, null
  br i1 %26, label %27, label %31

27:                                               ; preds = %21
  %28 = load i64, ptr @H5E_DATASET_g, align 8, !tbaa !10
  %29 = load i64, ptr @H5E_NOSPACE_g, align 8, !tbaa !10
  %30 = tail call i32 (ptr, ptr, i32, i64, i64, ptr, ...) @H5E_printf_stack(ptr noundef nonnull @.str.2, ptr noundef nonnull @__func__.H5D__vlen_get_buf_size_gen_cb, i32 noundef 2856, i64 noundef %28, i64 noundef %29, ptr noundef nonnull @.str.268) #12
  br label %55

31:                                               ; preds = %21
  %32 = getelementptr inbounds nuw i8, ptr %4, i64 16
  %33 = load ptr, ptr %32, align 8, !tbaa !156
  %34 = tail call i32 @H5S_select_elements(ptr noundef %33, i32 noundef 0, i64 noundef 1, ptr noundef %3) #12
  %35 = icmp slt i32 %34, 0
  br i1 %35, label %36, label %40

36:                                               ; preds = %31
  %37 = load i64, ptr @H5E_DATASET_g, align 8, !tbaa !10
  %38 = load i64, ptr @H5E_CANTCREATE_g, align 8, !tbaa !10
  %39 = tail call i32 (ptr, ptr, i32, i64, i64, ptr, ...) @H5E_printf_stack(ptr noundef nonnull @.str.2, ptr noundef nonnull @__func__.H5D__vlen_get_buf_size_gen_cb, i32 noundef 2860, i64 noundef %37, i64 noundef %38, ptr noundef nonnull @.str.266) #12
  br label %55

40:                                               ; preds = %31
  %41 = load ptr, ptr %4, align 8, !tbaa !150
  %42 = tail call ptr @H5VL_obj_get_data(ptr noundef %41) #12
  store ptr %42, ptr %7, align 8, !tbaa !118
  %43 = load ptr, ptr %4, align 8, !tbaa !150
  %44 = tail call ptr @H5VL_obj_get_connector(ptr noundef %43) #12
  %45 = getelementptr inbounds nuw i8, ptr %4, i64 24
  %46 = getelementptr inbounds nuw i8, ptr %4, i64 8
  %47 = getelementptr inbounds nuw i8, ptr %4, i64 32
  %48 = load i64, ptr %47, align 8, !tbaa !161
  %49 = call i32 @H5VL_dataset_read(i64 noundef 1, ptr noundef nonnull %7, ptr noundef %44, ptr noundef nonnull %6, ptr noundef nonnull %45, ptr noundef nonnull %46, i64 noundef %48, ptr noundef nonnull %22, ptr noundef null) #12
  %50 = icmp slt i32 %49, 0
  br i1 %50, label %51, label %55

51:                                               ; preds = %40
  %52 = load i64, ptr @H5E_DATASET_g, align 8, !tbaa !10
  %53 = load i64, ptr @H5E_READERROR_g, align 8, !tbaa !10
  %54 = call i32 (ptr, ptr, i32, i64, i64, ptr, ...) @H5E_printf_stack(ptr noundef nonnull @.str.2, ptr noundef nonnull @__func__.H5D__vlen_get_buf_size_gen_cb, i32 noundef 2867, i64 noundef %52, i64 noundef %53, ptr noundef nonnull @.str.269) #12
  br label %55

55:                                               ; preds = %17, %27, %36, %51, %40, %5
  %.0 = phi i32 [ -1, %17 ], [ -1, %27 ], [ -1, %36 ], [ -1, %51 ], [ 0, %40 ], [ 0, %5 ]
  call void @llvm.lifetime.end.p0(i64 8, ptr nonnull %7) #12
  ret i32 %.0
}